; Function Attrs: nofree norecurse nosync nounwind memory(argmem: readwrite) uwtable
define range(i32 -173, 1) i32 @wc_Poly1305_EncodeSizes(ptr noundef captures(address_is_null) %0, i32 noundef %1, i32 noundef %2) local_unnamed_addr #2 {
  %4 = alloca [16 x i8], align 16
  call void @llvm.lifetime.start.p0(i64 16, ptr nonnull %4) #6
  %5 = icmp eq ptr %0, null
  br i1 %5, label %wc_Poly1305Update.exit, label %6

6:                                                ; preds = %3
  %7 = zext i32 %1 to i64
  store i64 %7, ptr %4, align 16, !tbaa !3
  %8 = getelementptr inbounds nuw i8, ptr %4, i64 8
  %9 = zext i32 %2 to i64
  store i64 %9, ptr %8, align 8, !tbaa !3
  %10 = getelementptr inbounds nuw i8, ptr %0, i64 64
  %11 = load i64, ptr %10, align 8, !tbaa !7
  %.not.i = icmp eq i64 %11, 0
  br i1 %.not.i, label %.thread, label %12

12:                                               ; preds = %6
  %13 = sub i64 16, %11
  %spec.select.i = tail call i64 @llvm.umin.i64(i64 %13, i64 16)
  %.not74.i = icmp eq i64 %11, 16
  br i1 %.not74.i, label %._crit_edge.i, label %.lr.ph.i

.lr.ph.i:                                         ; preds = %12
  %umax.i = tail call i64 @llvm.umax.i64(i64 %spec.select.i, i64 1)
  %14 = getelementptr i8, ptr %0, i64 %11
  %scevgep = getelementptr i8, ptr %14, i64 72
  call void @llvm.memcpy.p0.p0.i64(ptr noundef nonnull align 1 dereferenceable(1) %scevgep, ptr noundef nonnull align 16 dereferenceable(1) %4, i64 %umax.i, i1 false), !tbaa !10
  br label %._crit_edge.i

._crit_edge.i:                                    ; preds = %.lr.ph.i, %12
  %15 = add i64 %spec.select.i, %11
  store i64 %15, ptr %10, align 8, !tbaa !7
  %16 = icmp ugt i64 %15, 15
  br i1 %16, label %17, label %wc_Poly1305Update.exit

17:                                               ; preds = %._crit_edge.i
  %18 = getelementptr inbounds nuw i8, ptr %4, i64 %spec.select.i
  %19 = trunc nuw nsw i64 %spec.select.i to i32
  %20 = sub nuw nsw i32 16, %19
  %21 = getelementptr inbounds nuw i8, ptr %0, i64 72
  tail call fastcc void @poly1305_blocks(ptr noundef nonnull %0, ptr noundef nonnull readonly %21, i64 noundef 16)
  store i64 0, ptr %10, align 8, !tbaa !7
  %22 = icmp eq i64 %11, 16
  br i1 %22, label %.thread, label %27

.thread:                                          ; preds = %6, %17
  %.053.i9 = phi ptr [ %18, %17 ], [ %4, %6 ]
  %.061.i8 = phi i32 [ %20, %17 ], [ 16, %6 ]
  %23 = and i32 %.061.i8, 16
  %24 = zext nneg i32 %23 to i64
  call fastcc void @poly1305_blocks(ptr noundef nonnull %0, ptr noundef nonnull %.053.i9, i64 noundef %24)
  %25 = and i32 %.061.i8, 15
  %26 = getelementptr inbounds nuw i8, ptr %.053.i9, i64 %24
  br label %27

27:                                               ; preds = %.thread, %17
  %.162.i = phi i32 [ %25, %.thread ], [ %20, %17 ]
  %.154.i = phi ptr [ %26, %.thread ], [ %18, %17 ]
  %.not71.i = icmp eq i32 %.162.i, 0
  br i1 %.not71.i, label %wc_Poly1305Update.exit, label %.preheader.i

.preheader.i:                                     ; preds = %27
  %28 = zext nneg i32 %.162.i to i64
  %29 = getelementptr inbounds nuw i8, ptr %0, i64 72
  %30 = load i64, ptr %10, align 8, !tbaa !7
  br label %31

31:                                               ; preds = %31, %.preheader.i
  %.16073.i = phi i64 [ 0, %.preheader.i ], [ %36, %31 ]
  %32 = getelementptr inbounds nuw i8, ptr %.154.i, i64 %.16073.i
  %33 = load i8, ptr %32, align 1, !tbaa !10
  %34 = add i64 %.16073.i, %30
  %35 = getelementptr inbounds nuw [16 x i8], ptr %29, i64 0, i64 %34
  store i8 %33, ptr %35, align 1, !tbaa !10
  %36 = add nuw nsw i64 %.16073.i, 1
  %exitcond75.not.i = icmp eq i64 %36, %28
  br i1 %exitcond75.not.i, label %37, label %31, !llvm.loop !13

37:                                               ; preds = %31
  %38 = add i64 %30, %28
  store i64 %38, ptr %10, align 8, !tbaa !7
  br label %wc_Poly1305Update.exit

wc_Poly1305Update.exit:                           ; preds = %37, %27, %._crit_edge.i, %3
  %.0 = phi i32 [ -173, %3 ], [ 0, %._crit_edge.i ], [ 0, %27 ], [ 0, %37 ]
  call void @llvm.lifetime.end.p0(i64 16, ptr nonnull %4) #6
  ret i32 %.0
}